target datalayout = "e-m:e-p270:32:32-p271:32:32-p272:64:64-i64:64-i128:128-f80:128-n8:16:32:64-S128"
target triple = "x86_64-pc-linux-gnu"

%class.XMMRegister = type { i32 }

@_type2aelembytes = external global [20 x i32], align 16

; Function Attrs: mustprogress nounwind uwtable
define linkonce_odr hidden noundef i32 @_Z15type2aelembytes9BasicTypeb(i8 noundef zeroext %0, i1 noundef zeroext %1) #1 comdat {
  %3 = alloca i8, align 1
  %4 = alloca i8, align 1
  store i8 %0, ptr %3, align 1
  %5 = zext i1 %1 to i8
  store i8 %5, ptr %4, align 1
  %6 = load i8, ptr %3, align 1
  %7 = zext i8 %6 to i64
  %8 = getelementptr inbounds [20 x i32], ptr @_type2aelembytes, i64 0, i64 %7
  %9 = load i32, ptr %8, align 4
  ret i32 %9
}

; Function Attrs: mustprogress nounwind uwtable
define hidden i32 @_ZN17C2_MacroAssembler8get_laneE9BasicType11XMMRegisterS1_i(ptr noundef nonnull align 8 dereferenceable(40) %0, i8 noundef zeroext %1, i32 %2, i32 %3, i32 noundef %4) #1 align 2 {
  %6 = alloca %class.XMMRegister, align 4
  %7 = alloca %class.XMMRegister, align 4
  %8 = alloca %class.XMMRegister, align 4
  %9 = alloca ptr, align 8
  %10 = alloca i8, align 1
  %11 = alloca i32, align 4
  %12 = alloca i32, align 4
  %13 = alloca i32, align 4
  %14 = alloca i32, align 4
  %15 = alloca i32, align 4
  %16 = alloca %class.XMMRegister, align 4
  %17 = alloca %class.XMMRegister, align 4
  %18 = alloca %class.XMMRegister, align 4
  %19 = alloca %class.XMMRegister, align 4
  %20 = getelementptr inbounds %class.XMMRegister, ptr %7, i32 0, i32 0
  store i32 %2, ptr %20, align 4
  %21 = getelementptr inbounds %class.XMMRegister, ptr %8, i32 0, i32 0
  store i32 %3, ptr %21, align 4
  store ptr %0, ptr %9, align 8
  store i8 %1, ptr %10, align 1
  store i32 %4, ptr %11, align 4
  %22 = load ptr, ptr %9, align 8
  %23 = load i8, ptr %10, align 1
  %24 = call noundef i32 @_Z15type2aelembytes9BasicTypeb(i8 noundef zeroext %23, i1 noundef zeroext false)
  store i32 %24, ptr %12, align 4
  %25 = load i32, ptr %12, align 4
  %26 = sdiv i32 16, %25
  store i32 %26, ptr %13, align 4
  %27 = load i32, ptr %11, align 4
  %28 = load i32, ptr %13, align 4
  %29 = sdiv i32 %27, %28
  store i32 %29, ptr %14, align 4
  %30 = load i32, ptr %11, align 4
  %31 = load i32, ptr %13, align 4
  %32 = srem i32 %30, %31
  store i32 %32, ptr %15, align 4
  %33 = load i32, ptr %14, align 4
  %34 = icmp sge i32 %33, 2
  br i1 %34, label %35, label %43

35:                                               ; preds = %5
  call void @llvm.memcpy.p0.p0.i64(ptr align 4 %16, ptr align 4 %7, i64 4, i1 false)
  call void @llvm.memcpy.p0.p0.i64(ptr align 4 %17, ptr align 4 %8, i64 4, i1 false)
  %36 = load i32, ptr %14, align 4
  %37 = and i32 %36, 3
  %38 = trunc i32 %37 to i8
  %39 = getelementptr inbounds %class.XMMRegister, ptr %16, i32 0, i32 0
  %40 = load i32, ptr %39, align 4
  %41 = getelementptr inbounds %class.XMMRegister, ptr %17, i32 0, i32 0
  %42 = load i32, ptr %41, align 4
  call void @_ZN9Assembler13vextractf32x4E11XMMRegisterS0_h(ptr noundef nonnull align 8 dereferenceable(40) %22, i32 %40, i32 %42, i8 noundef zeroext %38)
  call void @llvm.memcpy.p0.p0.i64(ptr align 4 %6, ptr align 4 %7, i64 4, i1 false)
  br label %54

43:                                               ; preds = %5
  %44 = load i32, ptr %14, align 4
  %45 = icmp sgt i32 %44, 0
  br i1 %45, label %46, label %53

46:                                               ; preds = %43
  call void @llvm.memcpy.p0.p0.i64(ptr align 4 %18, ptr align 4 %7, i64 4, i1 false)
  call void @llvm.memcpy.p0.p0.i64(ptr align 4 %19, ptr align 4 %8, i64 4, i1 false)
  %47 = load i32, ptr %14, align 4
  %48 = trunc i32 %47 to i8
  %49 = getelementptr inbounds %class.XMMRegister, ptr %18, i32 0, i32 0
  %50 = load i32, ptr %49, align 4
  %51 = getelementptr inbounds %class.XMMRegister, ptr %19, i32 0, i32 0
  %52 = load i32, ptr %51, align 4
  call void @_ZN9Assembler12vextractf128E11XMMRegisterS0_h(ptr noundef nonnull align 8 dereferenceable(40) %22, i32 %50, i32 %52, i8 noundef zeroext %48)
  call void @llvm.memcpy.p0.p0.i64(ptr align 4 %6, ptr align 4 %7, i64 4, i1 false)
  br label %54

53:                                               ; preds = %43
  call void @llvm.memcpy.p0.p0.i64(ptr align 4 %6, ptr align 4 %8, i64 4, i1 false)
  br label %54

54:                                               ; preds = %53, %46, %35
  %55 = getelementptr inbounds %class.XMMRegister, ptr %6, i32 0, i32 0
  %56 = load i32, ptr %55, align 4
  ret i32 %56
}