; Function Attrs: mustprogress nounwind uwtable
define hidden i32 @_ZN17C2_MacroAssembler8get_laneE9BasicType11XMMRegisterS1_i(ptr noundef nonnull align 8 dereferenceable(40) %0, i8 noundef zeroext %1, i32 %2, i32 %3, i32 noundef %4) local_unnamed_addr #0 align 2 {
  %6 = zext i8 %1 to i64
  %7 = getelementptr inbounds [20 x i32], ptr @_type2aelembytes, i64 0, i64 %6
  %8 = load i32, ptr %7, align 4
  %9 = sdiv i32 16, %8
  %10 = sdiv i32 %4, %9
  %11 = icmp sgt i32 %10, 1
  br i1 %11, label %12, label %15

12:                                               ; preds = %5
  %13 = trunc i32 %10 to i8
  %14 = and i8 %13, 3
  tail call void @_ZN9Assembler13vextractf32x4E11XMMRegisterS0_h(ptr noundef nonnull align 8 dereferenceable(40) %0, i32 %2, i32 %3, i8 noundef zeroext %14) #11
  br label %18

15:                                               ; preds = %5
  %16 = icmp eq i32 %10, 1
  br i1 %16, label %17, label %18

17:                                               ; preds = %15
  tail call void @_ZN9Assembler12vextractf128E11XMMRegisterS0_h(ptr noundef nonnull align 8 dereferenceable(40) %0, i32 %2, i32 %3, i8 noundef zeroext 1) #11
  br label %18

18:                                               ; preds = %15, %17, %12
  %.sroa.018.0 = phi i32 [ %2, %12 ], [ %2, %17 ], [ %3, %15 ]
  ret i32 %.sroa.018.0
}